; Function Attrs: mustprogress nofree norecurse nosync nounwind willreturn memory(argmem: write) uwtable
define void @_ZThn16_N3gmx19StatePropagatorData7Element35registerTrajectorySignallerCallbackENS_15TrajectoryEventE(ptr dead_on_unwind noalias nocapture writable writeonly sret(%"class.std::optional.17") align 8 %0, ptr noundef %1, i32 noundef %2) unnamed_addr #2 align 2 personality ptr @__gxx_personality_v0 {
  %4 = icmp eq i32 %2, 0
  br i1 %4, label %5, label %_ZN3gmx19StatePropagatorData7Element35registerTrajectorySignallerCallbackENS_15TrajectoryEventE.exit

5:                                                ; preds = %3
  %6 = getelementptr inbounds i8, ptr %1, i64 -16
  %7 = getelementptr inbounds i8, ptr %0, i64 16
  %8 = getelementptr inbounds i8, ptr %0, i64 24
  %9 = getelementptr inbounds i8, ptr %0, i64 8
  store i64 0, ptr %9, align 8, !alias.scope !9
  %10 = ptrtoint ptr %6 to i64
  store i64 %10, ptr %0, align 8, !alias.scope !9
  store ptr @"_ZNSt17_Function_handlerIFvldEZN3gmx19StatePropagatorData7Element35registerTrajectorySignallerCallbackENS1_15TrajectoryEventEE3$_0E9_M_invokeERKSt9_Any_dataOlOd", ptr %8, align 8, !alias.scope !9
  store ptr @"_ZNSt17_Function_handlerIFvldEZN3gmx19StatePropagatorData7Element35registerTrajectorySignallerCallbackENS1_15TrajectoryEventEE3$_0E10_M_managerERSt9_Any_dataRKS7_St18_Manager_operation", ptr %7, align 8, !alias.scope !9
  br label %_ZN3gmx19StatePropagatorData7Element35registerTrajectorySignallerCallbackENS_15TrajectoryEventE.exit

_ZN3gmx19StatePropagatorData7Element35registerTrajectorySignallerCallbackENS_15TrajectoryEventE.exit: ; preds = %3, %5
  %.sink.i = phi i8 [ 1, %5 ], [ 0, %3 ]
  %11 = getelementptr inbounds i8, ptr %0, i64 32
  store i8 %.sink.i, ptr %11, align 8, !alias.scope !9
  ret void
}